Certificate:
    Data:
        Version: 1 (0x0)
        Serial Number:
            01:bb:34:9b:3b:19:fc:8e:54:e9:a9:c3:fa:56:ee:9d:6f:a5:6c:7a
        Signature Algorithm: NULL
        Issuer: CN = postgres.webex.com
        Validity
            Not Before: May 18 08:48:00 2022 GMT
            Not After : May 18 08:48:00 2023 GMT
        Subject: CN = postgres.webex.com
        Subject Public Key Info:
            Public Key Algorithm: rsaEncryption
                RSA Public-Key: (2048 bit)
                Modulus:
                    00:cf:cf:45:4f:94:bd:a7:1f:ab:3b:e8:31:22:2a:
                    7a:a7:43:5a:a4:73:11:55:a4:77:db:49:e3:a0:15:
                    e7:bf:14:fd:2c:dd:67:6f:b8:92:d0:d8:6b:61:f4:
                    2b:0c:42:38:fc:97:2a:36:e1:c3:7d:a9:a0:45:dc:
                    d4:32:4a:00:a4:c6:45:6d:9b:2f:00:4e:70:25:58:
                    da:83:0f:4e:f7:36:22:72:19:86:1a:65:0b:ff:bf:
                    5e:a8:77:02:c7:68:6e:c5:3b:9c:62:a7:40:ae:db:
                    e2:52:ec:b2:e9:cc:bc:60:26:2a:ea:db:eb:1f:fa:
                    d4:02:4a:ab:a3:e4:8a:d2:46:38:17:f7:9b:d0:57:
                    62:87:d0:31:af:73:54:84:d8:6d:77:c8:e7:0a:43:
                    b6:e2:98:cc:15:58:27:d8:31:e0:56:41:73:b4:eb:
                    a5:17:76:44:ef:6a:69:17:04:22:e4:7e:67:f1:b0:
                    ac:de:bc:75:f2:1c:b2:5f:74:9c:d9:6e:fb:d7:a9:
                    1d:df:48:70:72:cf:65:d0:48:d8:42:59:7a:a8:48:
                    70:b0:ba:3b:7e:1d:81:eb:16:1d:69:b9:a8:d6:66:
                    7d:43:05:13:92:79:07:db:d1:c6:e7:30:6e:8e:d8:
                    08:d4:3e:f8:a1:06:8c:1f:b1:4d:f6:23:1d:c6:09:
                    aa:cd
                Exponent: 65537 (0x10001)
    Signature Algorithm: NULL
-----BEGIN CERTIFICATE-----
MIICxjCCAa4CFGM71LbCJzdLPngXoOCEW/FCm3a4MA0GCSqGSIb3DQEBCwUAMCIx
IDAeBgNVBAMMF3Bvc3RncmVzLnJvb3Qud2ViZXguY29tMB4XDTIyMDUxODA4NDgw
MFoXDTIzMDUxODA4NDgwMFowHTEbMBkGA1UEAwwScG9zdGdyZXMud2ViZXguY29t
MIIBIjANBgkqhkiG9w0BAQEFAAOCAQ8AMIIBCgKCAQEAz89FT5S9px+rO+gxIip6
p0NapHMRVaR320njoBXnvxT9LN1nb7iS0NhrYfQrDEI4/JcqNuHDfamgRdzUMkoA
pMZFbZsvAE5wJVjagw9O9zYichmGGmUL/79eqHcCx2huxTucYqdArtviUuyy6cy8
YCYq6tvrH/rUAkqro+SK0kY4F/eb0Fdih9Axr3NUhNhtd8jnCkO24pjMFVgn2DHg
VkFztOulF3ZE72ppFwQi5H5n8bCs3rx18hyyX3Sc2W7716kd30hwcs9l0EjYQll6
qEhwsLo7fh2B6xYdabmo1mZ9QwUTknkH29HG5zBujtgI1D74oQaMH7FN9iMdxgmq
zQIDAQABMA0GCSqGSIb3DQEBCwUAA4IBAQCKR/PDAXw7yDl6Y3sBGSwby2Baga5p
FUhfFJ2/kz+aclRcl+4zYlq7e/HQrhhMzH+moTYSv90lKKfqUUIrHAemKAjp8Nuy
BmHB2TnL/1OLj3hCaCBD30Z8Ib2/+1pU9xJafAaHLR96+sYJYzMJHELqg52RGxdU
2WVAWvQcz6Tat637wxhIfbvWPUVom7bK+Vb6mTo4V3LNwLRt506mDjHMeeBCE3Zm
wY6ij1+w9f57xGa/+IW8naTnnB5m1GCl5SlbF8RE7sCfmrBJuudl21n20wrzGHiz
R9dgHMNQcH82PoxGz7pvKRTCiFnoQCOWAQX/5WUxswj9rXEugAhb8Xpp
-----END CERTIFICATE-----